target datalayout = "e-m:e-p270:32:32-p271:32:32-p272:64:64-i64:64-i128:128-f80:128-n8:16:32:64-S128"
target triple = "x86_64-pc-linux-gnu"

%struct.AVCodecContext = type { ptr, i32, i32, ptr, i32, i32, ptr, ptr, ptr, i64, i32, i32, ptr, i32, %struct.AVRational, %struct.AVRational, %struct.AVRational, i32, i32, i32, i32, i32, %struct.AVRational, i32, i32, i32, i32, i32, i32, i32, i32, i32, i32, i32, ptr, ptr, i32, float, float, float, float, float, float, float, float, float, i32, i32, i32, i32, i32, i32, i32, i32, i32, i32, i32, i32, ptr, ptr, ptr, i32, i32, i32, i32, i32, i32, i32, i32, i32, i32, %struct.AVChannelLayout, i32, i32, i32, i32, i32, i32, i32, i32, ptr, i32, i32, i32, float, float, i32, i32, i32, i32, i32, ptr, i64, i64, float, float, i32, i32, ptr, ptr, i32, i32, i32, i32, i32, ptr, ptr, ptr, ptr, i32, i32, [8 x i64], i32, i32, i32, i32, i32, i32, i32, ptr, ptr, i32, i32, i32, i32, i32, i32, i32, i32, i32, i32, ptr, ptr, i32, i32, ptr, ptr, ptr, ptr, i32, i32, i64, i32, i32, i64, ptr, i64, ptr, i32, ptr, i32 }
%struct.AVRational = type { i32, i32 }
%struct.AVChannelLayout = type { i32, i32, %union.anon.1, ptr }
%union.anon.1 = type { i64 }
%struct.VAAPIEncodeContext = type { %struct.FFHWBaseEncodeContext, ptr, i32, i32, i32, i32, i32, i32, ptr, ptr, i32, i32, i32, i32, i32, i32, [4 x %struct._VAConfigAttrib], i32, i32, i32, ptr, ptr, [4 x i32], [4 x ptr], [4 x i64], i32, %struct._VAEncMiscParameterRateControl, %struct._VAEncMiscParameterHRD, %struct._VAEncMiscParameterFrameRate, %struct._VAEncMiscParameterBufferMaxFrameSize, %struct._VAEncMiscParameterBufferQualityLevel, ptr, ptr, i32, i32, i32, i32, i32, i32, [20 x i32], [22 x i32], [21 x i32], [23 x i32], i32, i32, ptr, i32, i32 }
%struct.FFHWBaseEncodeContext = type { ptr, ptr, ptr, i32, i32, i32, i32, i32, i32, ptr, ptr, ptr, ptr, ptr, ptr, ptr, ptr, [2 x ptr], i32, i64, i64, i64, i64, i64, i64, i64, [112 x i64], i32, i32, i32, i32, i32, i32, i32, i32, i32, i32, i32, i32, i32, i32, i32, i32, ptr, i32, ptr, i32, ptr }
%struct._VAConfigAttrib = type { i32, i32 }
%struct._VAEncMiscParameterRateControl = type { i32, i32, i32, i32, i32, i32, %union.anon.2, i32, i32, i32, i32, [4 x i32] }
%union.anon.2 = type { %struct.anon }
%struct.anon = type { i32 }
%struct._VAEncMiscParameterHRD = type { i32, i32, [4 x i32] }
%struct._VAEncMiscParameterFrameRate = type { i32, %union.anon.3, [4 x i32] }
%union.anon.3 = type { %struct.anon.4 }
%struct.anon.4 = type { i32 }
%struct._VAEncMiscParameterBufferMaxFrameSize = type { i32, i32, [4 x i32] }
%struct._VAEncMiscParameterBufferQualityLevel = type { i32, [4 x i32] }
%struct.VAAPIEncodeMJPEGContext = type { %struct.VAAPIEncodeContext, i32, i32, i32, [14 x i8], %struct.JPEGRawFrameHeader, %struct.JPEGRawScan, %struct.JPEGRawApplicationData, %struct.JPEGRawQuantisationTableSpecification, %struct.JPEGRawHuffmanTableSpecification, ptr, %struct.CodedBitstreamFragment }
%struct.JPEGRawFrameHeader = type { i16, i8, i16, i16, i16, [255 x i8], [255 x i8], [255 x i8], [255 x i8] }
%struct.JPEGRawScan = type { %struct.JPEGRawScanHeader, ptr, ptr, i64 }
%struct.JPEGRawScanHeader = type { i16, i8, [255 x i8], [255 x i8], [255 x i8], i8, i8, i8, i8 }
%struct.JPEGRawApplicationData = type { i16, ptr, ptr }
%struct.JPEGRawQuantisationTableSpecification = type { i16, [4 x %struct.JPEGRawQuantisationTable] }
%struct.JPEGRawQuantisationTable = type { i8, i8, [64 x i16] }
%struct.JPEGRawHuffmanTableSpecification = type { i16, [8 x %struct.JPEGRawHuffmanTable] }
%struct.JPEGRawHuffmanTable = type { i8, i8, [16 x i8], [256 x i8] }
%struct.CodedBitstreamFragment = type { ptr, i64, i64, ptr, i32, i32, ptr }

@.str.25 = private unnamed_addr constant [43 x i8] c"Invalid quality value %d (must be 1-100).\0A\00", align 1

; Function Attrs: cold nounwind optsize uwtable
define internal i32 @vaapi_encode_mjpeg_configure(ptr noundef %0) #0 {
  %2 = alloca i32, align 4
  %3 = alloca ptr, align 8
  %4 = alloca ptr, align 8
  %5 = alloca ptr, align 8
  %6 = alloca i32, align 4
  %7 = alloca i32, align 4
  store ptr %0, ptr %3, align 8, !tbaa !4
  call void @llvm.lifetime.start.p0(i64 8, ptr %4) #9
  %8 = load ptr, ptr %3, align 8, !tbaa !4
  %9 = getelementptr inbounds nuw %struct.AVCodecContext, ptr %8, i32 0, i32 6
  %10 = load ptr, ptr %9, align 8, !tbaa !9
  store ptr %10, ptr %4, align 8, !tbaa !29
  call void @llvm.lifetime.start.p0(i64 8, ptr %5) #9
  %11 = load ptr, ptr %3, align 8, !tbaa !4
  %12 = getelementptr inbounds nuw %struct.AVCodecContext, ptr %11, i32 0, i32 6
  %13 = load ptr, ptr %12, align 8, !tbaa !9
  store ptr %13, ptr %5, align 8, !tbaa !52
  call void @llvm.lifetime.start.p0(i64 4, ptr %6) #9
  %14 = load ptr, ptr %4, align 8, !tbaa !29
  %15 = getelementptr inbounds nuw %struct.VAAPIEncodeContext, ptr %14, i32 0, i32 10
  %16 = load i32, ptr %15, align 8, !tbaa !69
  %17 = load ptr, ptr %5, align 8, !tbaa !52
  %18 = getelementptr inbounds nuw %struct.VAAPIEncodeMJPEGContext, ptr %17, i32 0, i32 3
  store i32 %16, ptr %18, align 8, !tbaa !70
  %19 = load ptr, ptr %5, align 8, !tbaa !52
  %20 = getelementptr inbounds nuw %struct.VAAPIEncodeMJPEGContext, ptr %19, i32 0, i32 3
  %21 = load i32, ptr %20, align 8, !tbaa !70
  %22 = icmp slt i32 %21, 1
  br i1 %22, label %28, label %23

23:                                               ; preds = %1
  %24 = load ptr, ptr %5, align 8, !tbaa !52
  %25 = getelementptr inbounds nuw %struct.VAAPIEncodeMJPEGContext, ptr %24, i32 0, i32 3
  %26 = load i32, ptr %25, align 8, !tbaa !70
  %27 = icmp sgt i32 %26, 100
  br i1 %27, label %28, label %33

28:                                               ; preds = %23, %1
  %29 = load ptr, ptr %3, align 8, !tbaa !4
  %30 = load ptr, ptr %5, align 8, !tbaa !52
  %31 = getelementptr inbounds nuw %struct.VAAPIEncodeMJPEGContext, ptr %30, i32 0, i32 3
  %32 = load i32, ptr %31, align 8, !tbaa !70
  call void (ptr, i32, ptr, ...) @av_log(ptr noundef %29, i32 noundef 16, ptr noundef @.str.25, i32 noundef %32)
  store i32 -22, ptr %2, align 4
  store i32 1, ptr %7, align 4
  br label %58

33:                                               ; preds = %23
  %34 = load ptr, ptr %4, align 8, !tbaa !29
  %35 = getelementptr inbounds nuw %struct.VAAPIEncodeContext, ptr %34, i32 0, i32 15
  %36 = load i32, ptr %35, align 4, !tbaa !82
  %37 = and i32 %36, 16
  %38 = icmp ne i32 %37, 0
  br i1 %38, label %39, label %48

39:                                               ; preds = %33
  %40 = load ptr, ptr %4, align 8, !tbaa !29
  %41 = getelementptr inbounds nuw %struct.VAAPIEncodeContext, ptr %40, i32 0, i32 15
  %42 = load i32, ptr %41, align 4, !tbaa !82
  %43 = and i32 %42, -17
  store i32 %43, ptr %41, align 4, !tbaa !82
  %44 = load ptr, ptr %4, align 8, !tbaa !29
  %45 = getelementptr inbounds nuw %struct.VAAPIEncodeContext, ptr %44, i32 0, i32 15
  %46 = load i32, ptr %45, align 4, !tbaa !82
  %47 = or i32 %46, 4
  store i32 %47, ptr %45, align 4, !tbaa !82
  br label %48

48:                                               ; preds = %39, %33
  %49 = load ptr, ptr %5, align 8, !tbaa !52
  %50 = getelementptr inbounds nuw %struct.VAAPIEncodeMJPEGContext, ptr %49, i32 0, i32 10
  %51 = load ptr, ptr %3, align 8, !tbaa !4
  %52 = call i32 @ff_cbs_init(ptr noundef %50, i32 noundef 7, ptr noundef %51)
  store i32 %52, ptr %6, align 4, !tbaa !83
  %53 = load i32, ptr %6, align 4, !tbaa !83
  %54 = icmp slt i32 %53, 0
  br i1 %54, label %55, label %57

55:                                               ; preds = %48
  %56 = load i32, ptr %6, align 4, !tbaa !83
  store i32 %56, ptr %2, align 4
  store i32 1, ptr %7, align 4
  br label %58

57:                                               ; preds = %48
  store i32 0, ptr %2, align 4
  store i32 1, ptr %7, align 4
  br label %58

58:                                               ; preds = %57, %55, %28
  call void @llvm.lifetime.end.p0(i64 4, ptr %6) #9
  call void @llvm.lifetime.end.p0(i64 8, ptr %5) #9
  call void @llvm.lifetime.end.p0(i64 8, ptr %4) #9
  %59 = load i32, ptr %2, align 4
  ret i32 %59
}