; Function Attrs: cold nounwind optsize uwtable
define internal range(i32 -2147483648, 1) i32 @vaapi_encode_mjpeg_configure(ptr noundef %0) #0 {
  %2 = getelementptr inbounds nuw i8, ptr %0, i64 32
  %3 = load ptr, ptr %2, align 8, !tbaa !4
  %4 = getelementptr inbounds nuw i8, ptr %3, i64 1240
  %5 = load i32, ptr %4, align 8, !tbaa !59
  %6 = getelementptr inbounds nuw i8, ptr %3, i64 1984
  store i32 %5, ptr %6, align 8, !tbaa !60
  %7 = add i32 %5, -101
  %or.cond = icmp ult i32 %7, -100
  br i1 %or.cond, label %8, label %9

8:                                                ; preds = %1
  tail call void (ptr, i32, ptr, ...) @av_log(ptr noundef nonnull %0, i32 noundef 16, ptr noundef nonnull @.str.25, i32 noundef %5) #9
  br label %19

9:                                                ; preds = %1
  %10 = getelementptr inbounds nuw i8, ptr %3, i64 1260
  %11 = load i32, ptr %10, align 4, !tbaa !72
  %12 = and i32 %11, 16
  %.not = icmp eq i32 %12, 0
  br i1 %.not, label %16, label %13

13:                                               ; preds = %9
  %14 = and i32 %11, -21
  %15 = or disjoint i32 %14, 4
  store i32 %15, ptr %10, align 4, !tbaa !72
  br label %16

16:                                               ; preds = %13, %9
  %17 = getelementptr inbounds nuw i8, ptr %3, i64 6576
  %18 = tail call i32 @ff_cbs_init(ptr noundef nonnull %17, i32 noundef 7, ptr noundef nonnull %0) #9
  %. = tail call i32 @llvm.smin.i32(i32 %18, i32 0)
  br label %19

19:                                               ; preds = %16, %8
  %.0 = phi i32 [ -22, %8 ], [ %., %16 ]
  ret i32 %.0
}